target datalayout = "e-m:e-p270:32:32-p271:32:32-p272:64:64-i64:64-i128:128-f80:128-n8:16:32:64-S128"
target triple = "x86_64-pc-linux-gnu"

%"struct.open3d::core::IndexerIterator::Iterator" = type { %"class.std::vector.146" }
%"class.std::vector.146" = type { %"struct.std::_Vector_base.147" }
%"struct.std::_Vector_base.147" = type { %"struct.std::_Vector_base<std::unique_ptr<open3d::core::Indexer>, std::allocator<std::unique_ptr<open3d::core::Indexer>>>::_Vector_impl" }
%"struct.std::_Vector_base<std::unique_ptr<open3d::core::Indexer>, std::allocator<std::unique_ptr<open3d::core::Indexer>>>::_Vector_impl" = type { %"struct.std::_Vector_base<std::unique_ptr<open3d::core::Indexer>, std::allocator<std::unique_ptr<open3d::core::Indexer>>>::_Vector_impl_data" }
%"struct.std::_Vector_base<std::unique_ptr<open3d::core::Indexer>, std::allocator<std::unique_ptr<open3d::core::Indexer>>>::_Vector_impl_data" = type { ptr, ptr, ptr }
%"class.__gnu_cxx::__normal_iterator.152" = type { ptr }

; Function Attrs: mustprogress nounwind ssp uwtable
define linkonce_odr noundef nonnull align 8 dereferenceable(8) ptr @_ZNK9__gnu_cxx17__normal_iteratorIPKSt10unique_ptrIN6open3d4core7IndexerESt14default_deleteIS4_EESt6vectorIS7_SaIS7_EEE4baseEv(ptr noundef nonnull align 8 dereferenceable(8) %0) #4 comdat align 2 {
  %2 = alloca ptr, align 8
  store ptr %0, ptr %2, align 8, !tbaa !1006
  %3 = load ptr, ptr %2, align 8
  %4 = getelementptr inbounds nuw %"class.__gnu_cxx::__normal_iterator.152", ptr %3, i32 0, i32 0
  ret ptr %4
}

; Function Attrs: mustprogress nounwind ssp uwtable
define linkonce_odr void @_ZN9__gnu_cxx17__normal_iteratorIPKSt10unique_ptrIN6open3d4core7IndexerESt14default_deleteIS4_EESt6vectorIS7_SaIS7_EEEC2ERKS9_(ptr noundef nonnull align 8 dereferenceable(8) %0, ptr noundef nonnull align 8 dereferenceable(8) %1) unnamed_addr #4 comdat align 2 {
  %3 = alloca ptr, align 8
  %4 = alloca ptr, align 8
  store ptr %0, ptr %3, align 8, !tbaa !1006
  store ptr %1, ptr %4, align 8, !tbaa !999
  %5 = load ptr, ptr %3, align 8
  %6 = getelementptr inbounds nuw %"class.__gnu_cxx::__normal_iterator.152", ptr %5, i32 0, i32 0
  %7 = load ptr, ptr %4, align 8, !tbaa !999
  %8 = load ptr, ptr %7, align 8, !tbaa !882
  store ptr %8, ptr %6, align 8, !tbaa !1008
  ret void
}

; Function Attrs: inlinehint mustprogress nounwind ssp uwtable
define linkonce_odr noundef zeroext i1 @_ZN9__gnu_cxxeqIPKSt10unique_ptrIN6open3d4core7IndexerESt14default_deleteIS4_EESt6vectorIS7_SaIS7_EEEEbRKNS_17__normal_iteratorIT_T0_EESI_(ptr noundef nonnull align 8 dereferenceable(8) %0, ptr noundef nonnull align 8 dereferenceable(8) %1) #2 comdat {
  %3 = alloca ptr, align 8
  %4 = alloca ptr, align 8
  store ptr %0, ptr %3, align 8, !tbaa !1006
  store ptr %1, ptr %4, align 8, !tbaa !1006
  %5 = load ptr, ptr %3, align 8, !tbaa !1006
  %6 = call noundef nonnull align 8 dereferenceable(8) ptr @_ZNK9__gnu_cxx17__normal_iteratorIPKSt10unique_ptrIN6open3d4core7IndexerESt14default_deleteIS4_EESt6vectorIS7_SaIS7_EEE4baseEv(ptr noundef nonnull align 8 dereferenceable(8) %5) #27
  %7 = load ptr, ptr %6, align 8, !tbaa !882
  %8 = load ptr, ptr %4, align 8, !tbaa !1006
  %9 = call noundef nonnull align 8 dereferenceable(8) ptr @_ZNK9__gnu_cxx17__normal_iteratorIPKSt10unique_ptrIN6open3d4core7IndexerESt14default_deleteIS4_EESt6vectorIS7_SaIS7_EEE4baseEv(ptr noundef nonnull align 8 dereferenceable(8) %8) #27
  %10 = load ptr, ptr %9, align 8, !tbaa !882
  %11 = icmp eq ptr %7, %10
  ret i1 %11
}

; Function Attrs: mustprogress nounwind ssp uwtable
define linkonce_odr ptr @_ZNKSt6vectorISt10unique_ptrIN6open3d4core7IndexerESt14default_deleteIS3_EESaIS6_EE3endEv(ptr noundef nonnull align 8 dereferenceable(24) %0) #4 comdat align 2 {
  %2 = alloca %"class.__gnu_cxx::__normal_iterator.152", align 8
  %3 = alloca ptr, align 8
  store ptr %0, ptr %3, align 8, !tbaa !978
  %4 = load ptr, ptr %3, align 8
  %5 = getelementptr inbounds nuw %"struct.std::_Vector_base.147", ptr %4, i32 0, i32 0
  %6 = getelementptr inbounds nuw %"struct.std::_Vector_base<std::unique_ptr<open3d::core::Indexer>, std::allocator<std::unique_ptr<open3d::core::Indexer>>>::_Vector_impl_data", ptr %5, i32 0, i32 1
  call void @_ZN9__gnu_cxx17__normal_iteratorIPKSt10unique_ptrIN6open3d4core7IndexerESt14default_deleteIS4_EESt6vectorIS7_SaIS7_EEEC2ERKS9_(ptr noundef nonnull align 8 dereferenceable(8) %2, ptr noundef nonnull align 8 dereferenceable(8) %6) #27
  %7 = getelementptr inbounds nuw %"class.__gnu_cxx::__normal_iterator.152", ptr %2, i32 0, i32 0
  %8 = load ptr, ptr %7, align 8
  ret ptr %8
}

; Function Attrs: mustprogress nounwind ssp uwtable
define linkonce_odr ptr @_ZNKSt6vectorISt10unique_ptrIN6open3d4core7IndexerESt14default_deleteIS3_EESaIS6_EE5beginEv(ptr noundef nonnull align 8 dereferenceable(24) %0) #4 comdat align 2 {
  %2 = alloca %"class.__gnu_cxx::__normal_iterator.152", align 8
  %3 = alloca ptr, align 8
  store ptr %0, ptr %3, align 8, !tbaa !978
  %4 = load ptr, ptr %3, align 8
  %5 = getelementptr inbounds nuw %"struct.std::_Vector_base.147", ptr %4, i32 0, i32 0
  %6 = getelementptr inbounds nuw %"struct.std::_Vector_base<std::unique_ptr<open3d::core::Indexer>, std::allocator<std::unique_ptr<open3d::core::Indexer>>>::_Vector_impl_data", ptr %5, i32 0, i32 0
  call void @_ZN9__gnu_cxx17__normal_iteratorIPKSt10unique_ptrIN6open3d4core7IndexerESt14default_deleteIS4_EESt6vectorIS7_SaIS7_EEEC2ERKS9_(ptr noundef nonnull align 8 dereferenceable(8) %2, ptr noundef nonnull align 8 dereferenceable(8) %6) #27
  %7 = getelementptr inbounds nuw %"class.__gnu_cxx::__normal_iterator.152", ptr %2, i32 0, i32 0
  %8 = load ptr, ptr %7, align 8
  ret ptr %8
}

; Function Attrs: mustprogress nounwind ssp uwtable
define linkonce_odr noundef zeroext i1 @_ZNKSt6vectorISt10unique_ptrIN6open3d4core7IndexerESt14default_deleteIS3_EESaIS6_EE5emptyEv(ptr noundef nonnull align 8 dereferenceable(24) %0) #4 comdat align 2 {
  %2 = alloca ptr, align 8
  %3 = alloca %"class.__gnu_cxx::__normal_iterator.152", align 8
  %4 = alloca %"class.__gnu_cxx::__normal_iterator.152", align 8
  store ptr %0, ptr %2, align 8, !tbaa !978
  %5 = load ptr, ptr %2, align 8
  call void @llvm.lifetime.start.p0(i64 8, ptr %3) #27
  %6 = call ptr @_ZNKSt6vectorISt10unique_ptrIN6open3d4core7IndexerESt14default_deleteIS3_EESaIS6_EE5beginEv(ptr noundef nonnull align 8 dereferenceable(24) %5) #27
  %7 = getelementptr inbounds nuw %"class.__gnu_cxx::__normal_iterator.152", ptr %3, i32 0, i32 0
  store ptr %6, ptr %7, align 8
  call void @llvm.lifetime.start.p0(i64 8, ptr %4) #27
  %8 = call ptr @_ZNKSt6vectorISt10unique_ptrIN6open3d4core7IndexerESt14default_deleteIS3_EESaIS6_EE3endEv(ptr noundef nonnull align 8 dereferenceable(24) %5) #27
  %9 = getelementptr inbounds nuw %"class.__gnu_cxx::__normal_iterator.152", ptr %4, i32 0, i32 0
  store ptr %8, ptr %9, align 8
  %10 = call noundef zeroext i1 @_ZN9__gnu_cxxeqIPKSt10unique_ptrIN6open3d4core7IndexerESt14default_deleteIS4_EESt6vectorIS7_SaIS7_EEEEbRKNS_17__normal_iteratorIT_T0_EESI_(ptr noundef nonnull align 8 dereferenceable(8) %3, ptr noundef nonnull align 8 dereferenceable(8) %4) #27
  call void @llvm.lifetime.end.p0(i64 8, ptr %4) #27
  call void @llvm.lifetime.end.p0(i64 8, ptr %3) #27
  ret i1 %10
}

; Function Attrs: mustprogress nounwind ssp uwtable
define noundef zeroext i1 @_ZNK6open3d4core15IndexerIterator8IteratoreqERKS2_(ptr noundef nonnull align 8 dereferenceable(24) %0, ptr noundef nonnull align 8 dereferenceable(24) %1) #4 align 2 {
  %3 = alloca ptr, align 8
  %4 = alloca ptr, align 8
  store ptr %0, ptr %3, align 8, !tbaa !974
  store ptr %1, ptr %4, align 8, !tbaa !974
  %5 = load ptr, ptr %3, align 8
  %6 = load ptr, ptr %4, align 8, !tbaa !974
  %7 = icmp eq ptr %5, %6
  br i1 %7, label %17, label %8

8:                                                ; preds = %2
  %9 = getelementptr inbounds nuw %"struct.open3d::core::IndexerIterator::Iterator", ptr %5, i32 0, i32 0
  %10 = call noundef zeroext i1 @_ZNKSt6vectorISt10unique_ptrIN6open3d4core7IndexerESt14default_deleteIS3_EESaIS6_EE5emptyEv(ptr noundef nonnull align 8 dereferenceable(24) %9) #27
  br i1 %10, label %11, label %15

11:                                               ; preds = %8
  %12 = load ptr, ptr %4, align 8, !tbaa !974
  %13 = getelementptr inbounds nuw %"struct.open3d::core::IndexerIterator::Iterator", ptr %12, i32 0, i32 0
  %14 = call noundef zeroext i1 @_ZNKSt6vectorISt10unique_ptrIN6open3d4core7IndexerESt14default_deleteIS3_EESaIS6_EE5emptyEv(ptr noundef nonnull align 8 dereferenceable(24) %13) #27
  br label %15

15:                                               ; preds = %11, %8
  %16 = phi i1 [ false, %8 ], [ %14, %11 ]
  br label %17

17:                                               ; preds = %15, %2
  %18 = phi i1 [ true, %2 ], [ %16, %15 ]
  ret i1 %18
}

; Function Attrs: mustprogress nounwind ssp uwtable
define noundef zeroext i1 @_ZNK6open3d4core15IndexerIterator8IteratorneERKS2_(ptr noundef nonnull align 8 dereferenceable(24) %0, ptr noundef nonnull align 8 dereferenceable(24) %1) #4 align 2 {
  %3 = alloca ptr, align 8
  %4 = alloca ptr, align 8
  store ptr %0, ptr %3, align 8, !tbaa !974
  store ptr %1, ptr %4, align 8, !tbaa !974
  %5 = load ptr, ptr %3, align 8
  %6 = load ptr, ptr %4, align 8, !tbaa !974
  %7 = call noundef zeroext i1 @_ZNK6open3d4core15IndexerIterator8IteratoreqERKS2_(ptr noundef nonnull align 8 dereferenceable(24) %5, ptr noundef nonnull align 8 dereferenceable(24) %6)
  %8 = xor i1 %7, true
  ret i1 %8
}