; Function Attrs: mustprogress nofree norecurse nosync nounwind ssp willreturn memory(argmem: read) uwtable
define noundef zeroext i1 @_ZNK6open3d4core15IndexerIterator8IteratorneERKS2_(ptr noundef nonnull readonly align 8 captures(address) dereferenceable(24) %0, ptr noundef nonnull readonly align 8 captures(address) dereferenceable(24) %1) local_unnamed_addr #26 align 2 {
  %3 = icmp eq ptr %0, %1
  br i1 %3, label %_ZNK6open3d4core15IndexerIterator8IteratoreqERKS2_.exit, label %4

4:                                                ; preds = %2
  %5 = load ptr, ptr %0, align 8, !tbaa !771
  %6 = getelementptr inbounds nuw i8, ptr %0, i64 8
  %7 = load ptr, ptr %6, align 8, !tbaa !771
  %8 = icmp eq ptr %5, %7
  br i1 %8, label %9, label %_ZNK6open3d4core15IndexerIterator8IteratoreqERKS2_.exit

9:                                                ; preds = %4
  %10 = load ptr, ptr %1, align 8, !tbaa !771
  %11 = getelementptr inbounds nuw i8, ptr %1, i64 8
  %12 = load ptr, ptr %11, align 8, !tbaa !771
  %13 = icmp ne ptr %10, %12
  br label %_ZNK6open3d4core15IndexerIterator8IteratoreqERKS2_.exit

_ZNK6open3d4core15IndexerIterator8IteratoreqERKS2_.exit: ; preds = %2, %4, %9
  %14 = phi i1 [ false, %2 ], [ true, %4 ], [ %13, %9 ]
  ret i1 %14
}